target datalayout = "e-m:e-p270:32:32-p271:32:32-p272:64:64-i64:64-i128:128-f80:128-n8:16:32:64-S128"
target triple = "x86_64-pc-linux-gnu"

%struct.k12text_state_t = type { ptr, i32, ptr, i32, i32, i32, i32, i32, i32, i32, ptr, i32, i8, i8, i32, ptr, i64, i8 }
%struct.wtap_rec = type { i32, i32, i32, %struct.nstime_t, i32, %struct.nstime_t, i8, %union.anon, ptr, i8, %struct.Buffer, %struct.Buffer }
%struct.nstime_t = type { i64, i32 }
%union.anon = type { %struct.wtap_packet_header }
%struct.wtap_packet_header = type { i32, i32, i32, i32, %union.wtap_pseudo_header }
%union.wtap_pseudo_header = type { %struct.erf_mc_phdr }
%struct.erf_mc_phdr = type { %struct.erf_phdr, [16 x %struct.erf_ehdr], %union.anon.1 }
%struct.erf_phdr = type { i64, i8, i8, i16, i16, i16 }
%struct.erf_ehdr = type { i64 }
%union.anon.1 = type { i32 }
%struct.Buffer = type { ptr, i64, i64, i64 }
%struct.eth_phdr = type { i32 }

@.str.16 = private unnamed_addr constant [40 x i8] c"k12text: MTP2 packets not yet supported\00", align 1
@.str.17 = private unnamed_addr constant [41 x i8] c"k12text: SSCOP packets not yet supported\00", align 1
@.str.18 = private unnamed_addr constant [36 x i8] c"k12text: unknown encapsulation type\00", align 1

; Function Attrs: null_pointer_is_valid sspstrong uwtable
define internal zeroext i1 @k12text_set_headers(ptr noundef %0, ptr noundef %1, ptr noundef %2, ptr noundef %3) #0 {
  %5 = alloca i1, align 1
  %6 = alloca ptr, align 8
  %7 = alloca ptr, align 8
  %8 = alloca ptr, align 8
  %9 = alloca ptr, align 8
  store ptr %0, ptr %6, align 8
  store ptr %1, ptr %7, align 8
  store ptr %2, ptr %8, align 8
  store ptr %3, ptr %9, align 8
  %10 = load ptr, ptr %6, align 8
  %11 = getelementptr inbounds nuw %struct.wtap_rec, ptr %10, i32 0, i32 0
  store i32 0, ptr %11, align 8
  %12 = call ptr @wtap_block_create(i32 noundef 5)
  %13 = load ptr, ptr %6, align 8
  %14 = getelementptr inbounds nuw %struct.wtap_rec, ptr %13, i32 0, i32 8
  store ptr %12, ptr %14, align 8
  %15 = load ptr, ptr %6, align 8
  %16 = getelementptr inbounds nuw %struct.wtap_rec, ptr %15, i32 0, i32 1
  store i32 3, ptr %16, align 4
  %17 = load ptr, ptr %7, align 8
  %18 = getelementptr inbounds nuw %struct.k12text_state_t, ptr %17, i32 0, i32 4
  %19 = load i32, ptr %18, align 4
  %20 = mul i32 3600, %19
  %21 = add i32 946681200, %20
  %22 = load ptr, ptr %7, align 8
  %23 = getelementptr inbounds nuw %struct.k12text_state_t, ptr %22, i32 0, i32 5
  %24 = load i32, ptr %23, align 8
  %25 = mul i32 60, %24
  %26 = add i32 %21, %25
  %27 = load ptr, ptr %7, align 8
  %28 = getelementptr inbounds nuw %struct.k12text_state_t, ptr %27, i32 0, i32 6
  %29 = load i32, ptr %28, align 4
  %30 = add i32 %26, %29
  %31 = zext i32 %30 to i64
  %32 = load ptr, ptr %6, align 8
  %33 = getelementptr inbounds nuw %struct.wtap_rec, ptr %32, i32 0, i32 3
  %34 = getelementptr inbounds nuw %struct.nstime_t, ptr %33, i32 0, i32 0
  store i64 %31, ptr %34, align 8
  %35 = load ptr, ptr %7, align 8
  %36 = getelementptr inbounds nuw %struct.k12text_state_t, ptr %35, i32 0, i32 7
  %37 = load i32, ptr %36, align 8
  %38 = mul i32 1000000, %37
  %39 = load ptr, ptr %7, align 8
  %40 = getelementptr inbounds nuw %struct.k12text_state_t, ptr %39, i32 0, i32 8
  %41 = load i32, ptr %40, align 4
  %42 = mul i32 1000, %41
  %43 = add i32 %38, %42
  %44 = load ptr, ptr %6, align 8
  %45 = getelementptr inbounds nuw %struct.wtap_rec, ptr %44, i32 0, i32 3
  %46 = getelementptr inbounds nuw %struct.nstime_t, ptr %45, i32 0, i32 1
  store i32 %43, ptr %46, align 8
  %47 = load ptr, ptr %7, align 8
  %48 = getelementptr inbounds nuw %struct.k12text_state_t, ptr %47, i32 0, i32 11
  %49 = load i32, ptr %48, align 8
  %50 = load ptr, ptr %6, align 8
  %51 = getelementptr inbounds nuw %struct.wtap_rec, ptr %50, i32 0, i32 7
  %52 = getelementptr inbounds nuw %struct.wtap_packet_header, ptr %51, i32 0, i32 1
  store i32 %49, ptr %52, align 4
  %53 = load ptr, ptr %6, align 8
  %54 = getelementptr inbounds nuw %struct.wtap_rec, ptr %53, i32 0, i32 7
  %55 = getelementptr inbounds nuw %struct.wtap_packet_header, ptr %54, i32 0, i32 0
  store i32 %49, ptr %55, align 8
  %56 = load ptr, ptr %7, align 8
  %57 = getelementptr inbounds nuw %struct.k12text_state_t, ptr %56, i32 0, i32 9
  %58 = load i32, ptr %57, align 8
  %59 = load ptr, ptr %6, align 8
  %60 = getelementptr inbounds nuw %struct.wtap_rec, ptr %59, i32 0, i32 7
  %61 = getelementptr inbounds nuw %struct.wtap_packet_header, ptr %60, i32 0, i32 2
  store i32 %58, ptr %61, align 8
  %62 = load ptr, ptr %7, align 8
  %63 = getelementptr inbounds nuw %struct.k12text_state_t, ptr %62, i32 0, i32 9
  %64 = load i32, ptr %63, align 8
  switch i32 %64, label %79 [
    i32 1, label %65
    i32 43, label %70
    i32 28, label %70
    i32 42, label %71
    i32 13, label %75
  ]

65:                                               ; preds = %4
  %66 = load ptr, ptr %6, align 8
  %67 = getelementptr inbounds nuw %struct.wtap_rec, ptr %66, i32 0, i32 7
  %68 = getelementptr inbounds nuw %struct.wtap_packet_header, ptr %67, i32 0, i32 4
  %69 = getelementptr inbounds nuw %struct.eth_phdr, ptr %68, i32 0, i32 0
  store i32 0, ptr %69, align 8
  br label %83

70:                                               ; preds = %4, %4
  br label %83

71:                                               ; preds = %4
  %72 = load ptr, ptr %8, align 8
  store i32 -4, ptr %72, align 4
  %73 = call noalias ptr @g_strdup(ptr noundef @.str.16)
  %74 = load ptr, ptr %9, align 8
  store ptr %73, ptr %74, align 8
  store i1 false, ptr %5, align 1
  br label %84

75:                                               ; preds = %4
  %76 = load ptr, ptr %8, align 8
  store i32 -4, ptr %76, align 4
  %77 = call noalias ptr @g_strdup(ptr noundef @.str.17)
  %78 = load ptr, ptr %9, align 8
  store ptr %77, ptr %78, align 8
  store i1 false, ptr %5, align 1
  br label %84

79:                                               ; preds = %4
  %80 = load ptr, ptr %8, align 8
  store i32 -4, ptr %80, align 4
  %81 = call noalias ptr @g_strdup(ptr noundef @.str.18)
  %82 = load ptr, ptr %9, align 8
  store ptr %81, ptr %82, align 8
  store i1 false, ptr %5, align 1
  br label %84

83:                                               ; preds = %70, %65
  store i1 true, ptr %5, align 1
  br label %84

84:                                               ; preds = %83, %79, %75, %71
  %85 = load i1, ptr %5, align 1
  ret i1 %85
}