; Function Attrs: null_pointer_is_valid sspstrong uwtable
define internal fastcc noundef zeroext i1 @k12text_set_headers(ptr noundef writeonly captures(none) initializes((0, 8), (16, 28), (64, 76), (232, 240)) %0, ptr noundef readonly captures(none) %1, ptr noundef writeonly captures(none) %2, ptr noundef writeonly captures(none) %3) unnamed_addr #0 {
  store i32 0, ptr %0, align 8
  %5 = tail call ptr @wtap_block_create(i32 noundef 5)
  %6 = getelementptr inbounds nuw i8, ptr %0, i64 232
  store ptr %5, ptr %6, align 8
  %7 = getelementptr inbounds nuw i8, ptr %0, i64 4
  store i32 3, ptr %7, align 4
  %8 = getelementptr inbounds nuw i8, ptr %1, i64 28
  %9 = load i32, ptr %8, align 4
  %10 = mul i32 %9, 3600
  %11 = add i32 %10, 946681200
  %12 = getelementptr inbounds nuw i8, ptr %1, i64 32
  %13 = load i32, ptr %12, align 8
  %14 = mul i32 %13, 60
  %15 = add i32 %11, %14
  %16 = getelementptr inbounds nuw i8, ptr %1, i64 36
  %17 = load i32, ptr %16, align 4
  %18 = add i32 %15, %17
  %19 = zext i32 %18 to i64
  %20 = getelementptr inbounds nuw i8, ptr %0, i64 16
  store i64 %19, ptr %20, align 8
  %21 = getelementptr inbounds nuw i8, ptr %1, i64 40
  %22 = load i32, ptr %21, align 8
  %23 = mul i32 %22, 1000000
  %24 = getelementptr inbounds nuw i8, ptr %1, i64 44
  %25 = load i32, ptr %24, align 4
  %26 = mul i32 %25, 1000
  %27 = add i32 %26, %23
  %28 = getelementptr inbounds nuw i8, ptr %0, i64 24
  store i32 %27, ptr %28, align 8
  %29 = getelementptr inbounds nuw i8, ptr %1, i64 64
  %30 = load i32, ptr %29, align 8
  %31 = getelementptr inbounds nuw i8, ptr %0, i64 64
  %32 = getelementptr inbounds nuw i8, ptr %0, i64 68
  store i32 %30, ptr %32, align 4
  store i32 %30, ptr %31, align 8
  %33 = getelementptr inbounds nuw i8, ptr %1, i64 48
  %34 = load i32, ptr %33, align 8
  %35 = getelementptr inbounds nuw i8, ptr %0, i64 72
  store i32 %34, ptr %35, align 8
  switch i32 %34, label %42 [
    i32 1, label %36
    i32 43, label %44
    i32 28, label %44
    i32 42, label %38
    i32 13, label %40
  ]

36:                                               ; preds = %4
  %37 = getelementptr inbounds nuw i8, ptr %0, i64 80
  store i32 0, ptr %37, align 8
  br label %44

38:                                               ; preds = %4
  store i32 -4, ptr %2, align 4
  %39 = tail call noalias ptr @g_strdup(ptr noundef nonnull @.str.16)
  store ptr %39, ptr %3, align 8
  br label %44

40:                                               ; preds = %4
  store i32 -4, ptr %2, align 4
  %41 = tail call noalias ptr @g_strdup(ptr noundef nonnull @.str.17)
  store ptr %41, ptr %3, align 8
  br label %44

42:                                               ; preds = %4
  store i32 -4, ptr %2, align 4
  %43 = tail call noalias ptr @g_strdup(ptr noundef nonnull @.str.18)
  store ptr %43, ptr %3, align 8
  br label %44

44:                                               ; preds = %36, %4, %4, %42, %40, %38
  %.0 = phi i1 [ false, %42 ], [ false, %40 ], [ false, %38 ], [ true, %4 ], [ true, %4 ], [ true, %36 ]
  ret i1 %.0
}